target datalayout = "e-m:e-p270:32:32-p271:32:32-p272:64:64-i64:64-i128:128-f80:128-n8:16:32:64-S128"
target triple = "x86_64-pc-linux-gnu"

%"class.llvm::SmallVectorBase" = type { ptr, i32, i32 }
%"class.clang::format::(anonymous namespace)::LineFormatter" = type { ptr, ptr, ptr, ptr, ptr }
%"class.clang::format::AnnotatedLine" = type { ptr, ptr, %"class.llvm::SmallVector.27", i32, i32, i32, i64, i64, i8, i8, i8, i8, i8, i8, i8, i8, i8, i8, i8, i8, i32 }
%"class.llvm::SmallVector.27" = type { %"class.llvm::SmallVectorImpl" }
%"class.llvm::SmallVectorImpl" = type { %"class.llvm::SmallVectorTemplateBase" }
%"class.llvm::SmallVectorTemplateBase" = type { %"class.llvm::SmallVectorTemplateCommon" }
%"class.llvm::SmallVectorTemplateCommon" = type { %"class.llvm::SmallVectorBase" }
%"struct.clang::format::LineState" = type { i32, ptr, i8, i32, i32, i32, i8, %"class.llvm::SmallVector.152", i8, i32, ptr }
%"class.llvm::SmallVector.152" = type { %"class.llvm::SmallVectorImpl.153", %"struct.llvm::SmallVectorStorage.156" }
%"class.llvm::SmallVectorImpl.153" = type { %"class.llvm::SmallVectorTemplateBase.154" }
%"class.llvm::SmallVectorTemplateBase.154" = type { %"class.llvm::SmallVectorTemplateCommon.155" }
%"class.llvm::SmallVectorTemplateCommon.155" = type { %"class.llvm::SmallVectorBase" }
%"struct.llvm::SmallVectorStorage.156" = type { [56 x i8] }
%"struct.clang::format::ParenState" = type <{ ptr, i32, i32, i32, i32, i32, i32, i32, i32, i32, i32, i32, i16, i8, i8 }>

; Function Attrs: mustprogress nounwind uwtable
define linkonce_odr hidden noundef ptr @_ZNK4llvm25SmallVectorTemplateCommonIN5clang6format10ParenStateEvE10getFirstElEv(ptr noundef nonnull align 8 dereferenceable(16) %0) #0 comdat align 2 {
  %2 = alloca ptr, align 8
  store ptr %0, ptr %2, align 8
  %3 = load ptr, ptr %2, align 8
  %4 = getelementptr inbounds i8, ptr %3, i64 16
  ret ptr %4
}

; Function Attrs: mustprogress nounwind uwtable
define linkonce_odr hidden noundef zeroext i1 @_ZNK4llvm25SmallVectorTemplateCommonIN5clang6format10ParenStateEvE7isSmallEv(ptr noundef nonnull align 8 dereferenceable(16) %0) #0 comdat align 2 {
  %2 = alloca ptr, align 8
  store ptr %0, ptr %2, align 8
  %3 = load ptr, ptr %2, align 8
  %4 = getelementptr inbounds nuw %"class.llvm::SmallVectorBase", ptr %3, i32 0, i32 0
  %5 = load ptr, ptr %4, align 8
  %6 = call noundef ptr @_ZNK4llvm25SmallVectorTemplateCommonIN5clang6format10ParenStateEvE10getFirstElEv(ptr noundef nonnull align 8 dereferenceable(16) %3)
  %7 = icmp eq ptr %5, %6
  ret i1 %7
}

; Function Attrs: mustprogress nounwind uwtable
define linkonce_odr hidden void @_ZN4llvm15SmallVectorImplIN5clang6format10ParenStateEED2Ev(ptr noundef nonnull align 8 dereferenceable(16) %0) unnamed_addr #0 comdat align 2 {
  %2 = alloca ptr, align 8
  store ptr %0, ptr %2, align 8
  %3 = load ptr, ptr %2, align 8
  %4 = call noundef zeroext i1 @_ZNK4llvm25SmallVectorTemplateCommonIN5clang6format10ParenStateEvE7isSmallEv(ptr noundef nonnull align 8 dereferenceable(16) %3)
  br i1 %4, label %7, label %5

5:                                                ; preds = %1
  %6 = call noundef ptr @_ZN4llvm25SmallVectorTemplateCommonIN5clang6format10ParenStateEvE5beginEv(ptr noundef nonnull align 8 dereferenceable(16) %3)
  call void @free(ptr noundef %6) #12
  br label %7

7:                                                ; preds = %5, %1
  ret void
}

; Function Attrs: mustprogress nounwind uwtable
define linkonce_odr hidden void @_ZN4llvm23SmallVectorTemplateBaseIN5clang6format10ParenStateELb1EE13destroy_rangeEPS3_S5_(ptr noundef %0, ptr noundef %1) #0 comdat align 2 {
  %3 = alloca ptr, align 8
  %4 = alloca ptr, align 8
  store ptr %0, ptr %3, align 8
  store ptr %1, ptr %4, align 8
  ret void
}

; Function Attrs: mustprogress nounwind uwtable
define linkonce_odr hidden noundef ptr @_ZN4llvm25SmallVectorTemplateCommonIN5clang6format10ParenStateEvE5beginEv(ptr noundef nonnull align 8 dereferenceable(16) %0) #0 comdat align 2 {
  %2 = alloca ptr, align 8
  store ptr %0, ptr %2, align 8
  %3 = load ptr, ptr %2, align 8
  %4 = getelementptr inbounds nuw %"class.llvm::SmallVectorBase", ptr %3, i32 0, i32 0
  %5 = load ptr, ptr %4, align 8
  ret ptr %5
}

; Function Attrs: mustprogress nounwind uwtable
define linkonce_odr hidden void @_ZN4llvm11SmallVectorIN5clang6format10ParenStateELj1EED2Ev(ptr noundef nonnull align 8 dereferenceable(72) %0) unnamed_addr #0 comdat align 2 {
  %2 = alloca ptr, align 8
  store ptr %0, ptr %2, align 8
  %3 = load ptr, ptr %2, align 8
  %4 = call noundef ptr @_ZN4llvm25SmallVectorTemplateCommonIN5clang6format10ParenStateEvE5beginEv(ptr noundef nonnull align 8 dereferenceable(16) %3)
  %5 = call noundef ptr @_ZN4llvm25SmallVectorTemplateCommonIN5clang6format10ParenStateEvE3endEv(ptr noundef nonnull align 8 dereferenceable(16) %3)
  call void @_ZN4llvm23SmallVectorTemplateBaseIN5clang6format10ParenStateELb1EE13destroy_rangeEPS3_S5_(ptr noundef %4, ptr noundef %5)
  call void @_ZN4llvm15SmallVectorImplIN5clang6format10ParenStateEED2Ev(ptr noundef nonnull align 8 dereferenceable(16) %3) #12
  ret void
}

; Function Attrs: mustprogress nounwind uwtable
define linkonce_odr hidden noundef ptr @_ZN4llvm25SmallVectorTemplateCommonIN5clang6format10ParenStateEvE3endEv(ptr noundef nonnull align 8 dereferenceable(16) %0) #0 comdat align 2 {
  %2 = alloca ptr, align 8
  store ptr %0, ptr %2, align 8
  %3 = load ptr, ptr %2, align 8
  %4 = call noundef ptr @_ZN4llvm25SmallVectorTemplateCommonIN5clang6format10ParenStateEvE5beginEv(ptr noundef nonnull align 8 dereferenceable(16) %3)
  %5 = call noundef i64 @_ZNK4llvm15SmallVectorBaseIjE4sizeEv(ptr noundef nonnull align 8 dereferenceable(16) %3)
  %6 = getelementptr inbounds %"struct.clang::format::ParenState", ptr %4, i64 %5
  ret ptr %6
}

; Function Attrs: mustprogress nounwind uwtable
define linkonce_odr hidden void @_ZN5clang6format9LineStateD2Ev(ptr noundef nonnull align 8 dereferenceable(128) %0) unnamed_addr #0 comdat align 2 {
  %2 = alloca ptr, align 8
  store ptr %0, ptr %2, align 8
  %3 = load ptr, ptr %2, align 8
  %4 = getelementptr inbounds nuw %"struct.clang::format::LineState", ptr %3, i32 0, i32 7
  call void @_ZN4llvm11SmallVectorIN5clang6format10ParenStateELj1EED2Ev(ptr noundef nonnull align 8 dereferenceable(72) %4) #12
  ret void
}

; Function Attrs: mustprogress nounwind uwtable
define linkonce_odr hidden noundef nonnull align 8 dereferenceable(55) ptr @_ZN4llvm25SmallVectorTemplateCommonIN5clang6format10ParenStateEvE4backEv(ptr noundef nonnull align 8 dereferenceable(16) %0) #0 comdat align 2 {
  %2 = alloca ptr, align 8
  store ptr %0, ptr %2, align 8
  %3 = load ptr, ptr %2, align 8
  %4 = call noundef ptr @_ZN4llvm25SmallVectorTemplateCommonIN5clang6format10ParenStateEvE3endEv(ptr noundef nonnull align 8 dereferenceable(16) %3)
  %5 = getelementptr inbounds %"struct.clang::format::ParenState", ptr %4, i64 -1
  ret ptr %5
}

; Function Attrs: mustprogress nounwind uwtable
define internal noundef i32 @_ZN5clang6format12_GLOBAL__N_123OptimizingLineFormatter10formatLineERKNS0_13AnnotatedLineEjjb(ptr noundef nonnull align 8 dereferenceable(136) %0, ptr noundef nonnull align 8 dereferenceable(80) %1, i32 noundef %2, i32 noundef %3, i1 noundef zeroext %4) unnamed_addr #0 align 2 {
  %6 = alloca ptr, align 8
  %7 = alloca ptr, align 8
  %8 = alloca i32, align 4
  %9 = alloca i32, align 4
  %10 = alloca i8, align 1
  %11 = alloca %"struct.clang::format::LineState", align 8
  store ptr %0, ptr %6, align 8
  store ptr %1, ptr %7, align 8
  store i32 %2, ptr %8, align 4
  store i32 %3, ptr %9, align 4
  %12 = zext i1 %4 to i8
  store i8 %12, ptr %10, align 1
  %13 = load ptr, ptr %6, align 8
  %14 = getelementptr inbounds nuw %"class.clang::format::(anonymous namespace)::LineFormatter", ptr %13, i32 0, i32 1
  %15 = load ptr, ptr %14, align 8
  %16 = load i32, ptr %8, align 4
  %17 = load i32, ptr %9, align 4
  %18 = load ptr, ptr %7, align 8
  %19 = load i8, ptr %10, align 1
  %20 = trunc i8 %19 to i1
  call void @_ZN5clang6format20ContinuationIndenter15getInitialStateEjjPKNS0_13AnnotatedLineEb(ptr dead_on_unwind writable sret(%"struct.clang::format::LineState") align 8 %11, ptr noundef nonnull align 8 dereferenceable(1032) %15, i32 noundef %16, i32 noundef %17, ptr noundef %18, i1 noundef zeroext %20)
  %21 = getelementptr inbounds nuw %"struct.clang::format::LineState", ptr %11, i32 0, i32 10
  %22 = load ptr, ptr %21, align 8
  %23 = getelementptr inbounds nuw %"class.clang::format::AnnotatedLine", ptr %22, i32 0, i32 3
  %24 = load i32, ptr %23, align 8
  %25 = icmp eq i32 %24, 4
  br i1 %25, label %26, label %33

26:                                               ; preds = %5
  %27 = getelementptr inbounds nuw %"struct.clang::format::LineState", ptr %11, i32 0, i32 7
  %28 = call noundef nonnull align 8 dereferenceable(55) ptr @_ZN4llvm25SmallVectorTemplateCommonIN5clang6format10ParenStateEvE4backEv(ptr noundef nonnull align 8 dereferenceable(16) %27)
  %29 = getelementptr inbounds nuw %"struct.clang::format::ParenState", ptr %28, i32 0, i32 12
  %30 = load i16, ptr %29, align 4
  %31 = and i16 %30, -17
  %32 = or i16 %31, 16
  store i16 %32, ptr %29, align 4
  br label %33

33:                                               ; preds = %26, %5
  %34 = load i8, ptr %10, align 1
  %35 = trunc i8 %34 to i1
  %36 = call noundef i32 @_ZN5clang6format12_GLOBAL__N_123OptimizingLineFormatter20analyzeSolutionSpaceERNS0_9LineStateEb(ptr noundef nonnull align 8 dereferenceable(136) %13, ptr noundef nonnull align 8 dereferenceable(128) %11, i1 noundef zeroext %35)
  call void @_ZN5clang6format9LineStateD2Ev(ptr noundef nonnull align 8 dereferenceable(128) %11) #12
  ret i32 %36
}