; Function Attrs: mustprogress nounwind uwtable
define internal noundef i32 @_ZN5clang6format12_GLOBAL__N_123OptimizingLineFormatter10formatLineERKNS0_13AnnotatedLineEjjb(ptr noundef nonnull align 8 dereferenceable(136) %0, ptr noundef nonnull align 8 dereferenceable(80) %1, i32 noundef %2, i32 noundef %3, i1 noundef zeroext %4) unnamed_addr #0 align 2 {
  %6 = alloca %"struct.clang::format::LineState", align 8
  %7 = getelementptr inbounds nuw i8, ptr %0, i64 8
  %8 = load ptr, ptr %7, align 8
  call void @_ZN5clang6format20ContinuationIndenter15getInitialStateEjjPKNS0_13AnnotatedLineEb(ptr dead_on_unwind nonnull writable sret(%"struct.clang::format::LineState") align 8 %6, ptr noundef nonnull align 8 dereferenceable(1032) %8, i32 noundef %2, i32 noundef %3, ptr noundef nonnull %1, i1 noundef zeroext %4) #15
  %9 = getelementptr inbounds nuw i8, ptr %6, i64 120
  %10 = load ptr, ptr %9, align 8
  %11 = getelementptr inbounds nuw i8, ptr %10, i64 32
  %12 = load i32, ptr %11, align 8
  %13 = icmp eq i32 %12, 4
  br i1 %13, label %14, label %22

14:                                               ; preds = %5
  %15 = getelementptr inbounds nuw i8, ptr %6, i64 40
  %16 = load ptr, ptr %15, align 8
  %17 = call noundef i64 @_ZNK4llvm15SmallVectorBaseIjE4sizeEv(ptr noundef nonnull align 8 dereferenceable(16) %15) #15
  %18 = getelementptr inbounds %"struct.clang::format::ParenState", ptr %16, i64 %17
  %19 = getelementptr inbounds i8, ptr %18, i64 -4
  %20 = load i16, ptr %19, align 4
  %21 = or i16 %20, 16
  store i16 %21, ptr %19, align 4
  br label %22

22:                                               ; preds = %14, %5
  %23 = call fastcc noundef i32 @_ZN5clang6format12_GLOBAL__N_123OptimizingLineFormatter20analyzeSolutionSpaceERNS0_9LineStateEb(ptr noundef nonnull align 8 dereferenceable(136) %0, ptr noundef nonnull align 8 dereferenceable(128) %6, i1 noundef zeroext %4)
  %24 = getelementptr inbounds nuw i8, ptr %6, i64 40
  %25 = call noundef i64 @_ZNK4llvm15SmallVectorBaseIjE4sizeEv(ptr noundef nonnull align 8 dereferenceable(72) %24) #15
  %26 = load ptr, ptr %24, align 8
  %27 = getelementptr inbounds nuw i8, ptr %6, i64 56
  %28 = icmp eq ptr %26, %27
  br i1 %28, label %_ZN5clang6format9LineStateD2Ev.exit, label %29

29:                                               ; preds = %22
  call void @free(ptr noundef %26) #15
  br label %_ZN5clang6format9LineStateD2Ev.exit

_ZN5clang6format9LineStateD2Ev.exit:              ; preds = %22, %29
  ret i32 %23
}